target datalayout = "e-m:e-p270:32:32-p271:32:32-p272:64:64-i64:64-i128:128-f80:128-n8:16:32:64-S128"
target triple = "x86_64-pc-linux-gnu"

%struct.URLContext = type { ptr, ptr, ptr, ptr, i32, i32, i32, i32, %struct.AVIOInterruptCB, i64, ptr, ptr, i32 }
%struct.AVIOInterruptCB = type { ptr, ptr }
%struct.UDPContext = type { ptr, i32, i32, i32, i32, i32, i32, i32, i32, i32, i32, %struct.sockaddr_storage, i32, i32, i32, ptr, i32, i64, i64, i32, i64, %union.pthread_mutex_t, %union.pthread_cond_t, i32, [65540 x i8], i32, ptr, i32, %struct.sockaddr_storage, ptr, ptr, %struct.IPSourceFilters }
%union.pthread_mutex_t = type { %struct.__pthread_mutex_s }
%struct.__pthread_mutex_s = type { i32, i32, i32, i32, i32, i16, i16, %struct.__pthread_internal_list }
%struct.__pthread_internal_list = type { ptr, ptr }
%union.pthread_cond_t = type { %struct.__pthread_cond_s }
%struct.__pthread_cond_s = type { %union.__atomic_wide_counter, %union.__atomic_wide_counter, [2 x i32], [2 x i32], i32, i32, [2 x i32] }
%union.__atomic_wide_counter = type { i64 }
%struct.sockaddr_storage = type { i16, [118 x i8], i64 }
%struct.IPSourceFilters = type { i32, i32, ptr, ptr }

; Function Attrs: nounwind uwtable
define internal i32 @udp_write(ptr noundef %0, ptr noundef %1, i32 noundef %2) #0 {
  %4 = alloca i32, align 4
  %5 = alloca ptr, align 8
  %6 = alloca ptr, align 8
  %7 = alloca i32, align 4
  %8 = alloca ptr, align 8
  %9 = alloca i32, align 4
  %10 = alloca [4 x i8], align 1
  %11 = alloca i32, align 4
  %12 = alloca i32, align 4
  store ptr %0, ptr %5, align 8, !tbaa !4
  store ptr %1, ptr %6, align 8, !tbaa !9
  store i32 %2, ptr %7, align 4, !tbaa !20
  call void @llvm.lifetime.start.p0(i64 8, ptr %8) #9
  %13 = load ptr, ptr %5, align 8, !tbaa !4
  %14 = getelementptr inbounds nuw %struct.URLContext, ptr %13, i32 0, i32 2
  %15 = load ptr, ptr %14, align 8, !tbaa !11
  store ptr %15, ptr %8, align 8, !tbaa !18
  call void @llvm.lifetime.start.p0(i64 4, ptr %9) #9
  %16 = load ptr, ptr %8, align 8, !tbaa !18
  %17 = getelementptr inbounds nuw %struct.UDPContext, ptr %16, i32 0, i32 15
  %18 = load ptr, ptr %17, align 8, !tbaa !65
  %19 = icmp ne ptr %18, null
  br i1 %19, label %20, label %72

20:                                               ; preds = %3
  call void @llvm.lifetime.start.p0(i64 4, ptr %10) #9
  %21 = load ptr, ptr %8, align 8, !tbaa !18
  %22 = getelementptr inbounds nuw %struct.UDPContext, ptr %21, i32 0, i32 21
  %23 = call i32 @pthread_mutex_lock(ptr noundef %22) #9
  %24 = load ptr, ptr %8, align 8, !tbaa !18
  %25 = getelementptr inbounds nuw %struct.UDPContext, ptr %24, i32 0, i32 16
  %26 = load i32, ptr %25, align 8, !tbaa !67
  %27 = icmp slt i32 %26, 0
  br i1 %27, label %28, label %36

28:                                               ; preds = %20
  call void @llvm.lifetime.start.p0(i64 4, ptr %11) #9
  %29 = load ptr, ptr %8, align 8, !tbaa !18
  %30 = getelementptr inbounds nuw %struct.UDPContext, ptr %29, i32 0, i32 16
  %31 = load i32, ptr %30, align 8, !tbaa !67
  store i32 %31, ptr %11, align 4, !tbaa !20
  %32 = load ptr, ptr %8, align 8, !tbaa !18
  %33 = getelementptr inbounds nuw %struct.UDPContext, ptr %32, i32 0, i32 21
  %34 = call i32 @pthread_mutex_unlock(ptr noundef %33) #9
  %35 = load i32, ptr %11, align 4, !tbaa !20
  store i32 %35, ptr %4, align 4
  store i32 1, ptr %12, align 4
  call void @llvm.lifetime.end.p0(i64 4, ptr %11) #9
  br label %71

36:                                               ; preds = %20
  %37 = load ptr, ptr %8, align 8, !tbaa !18
  %38 = getelementptr inbounds nuw %struct.UDPContext, ptr %37, i32 0, i32 15
  %39 = load ptr, ptr %38, align 8, !tbaa !65
  %40 = call i64 @av_fifo_can_write(ptr noundef %39)
  %41 = load i32, ptr %7, align 4, !tbaa !20
  %42 = add nsw i32 %41, 4
  %43 = sext i32 %42 to i64
  %44 = icmp ult i64 %40, %43
  br i1 %44, label %45, label %49

45:                                               ; preds = %36
  %46 = load ptr, ptr %8, align 8, !tbaa !18
  %47 = getelementptr inbounds nuw %struct.UDPContext, ptr %46, i32 0, i32 21
  %48 = call i32 @pthread_mutex_unlock(ptr noundef %47) #9
  store i32 -12, ptr %4, align 4
  store i32 1, ptr %12, align 4
  br label %71

49:                                               ; preds = %36
  %50 = load i32, ptr %7, align 4, !tbaa !20
  %51 = getelementptr inbounds [4 x i8], ptr %10, i64 0, i64 0
  store i32 %50, ptr %51, align 1, !tbaa !56
  %52 = load ptr, ptr %8, align 8, !tbaa !18
  %53 = getelementptr inbounds nuw %struct.UDPContext, ptr %52, i32 0, i32 15
  %54 = load ptr, ptr %53, align 8, !tbaa !65
  %55 = getelementptr inbounds [4 x i8], ptr %10, i64 0, i64 0
  %56 = call i32 @av_fifo_write(ptr noundef %54, ptr noundef %55, i64 noundef 4)
  %57 = load ptr, ptr %8, align 8, !tbaa !18
  %58 = getelementptr inbounds nuw %struct.UDPContext, ptr %57, i32 0, i32 15
  %59 = load ptr, ptr %58, align 8, !tbaa !65
  %60 = load ptr, ptr %6, align 8, !tbaa !9
  %61 = load i32, ptr %7, align 4, !tbaa !20
  %62 = sext i32 %61 to i64
  %63 = call i32 @av_fifo_write(ptr noundef %59, ptr noundef %60, i64 noundef %62)
  %64 = load ptr, ptr %8, align 8, !tbaa !18
  %65 = getelementptr inbounds nuw %struct.UDPContext, ptr %64, i32 0, i32 22
  %66 = call i32 @pthread_cond_signal(ptr noundef %65) #9
  %67 = load ptr, ptr %8, align 8, !tbaa !18
  %68 = getelementptr inbounds nuw %struct.UDPContext, ptr %67, i32 0, i32 21
  %69 = call i32 @pthread_mutex_unlock(ptr noundef %68) #9
  %70 = load i32, ptr %7, align 4, !tbaa !20
  store i32 %70, ptr %4, align 4
  store i32 1, ptr %12, align 4
  br label %71

71:                                               ; preds = %49, %45, %28
  call void @llvm.lifetime.end.p0(i64 4, ptr %10) #9
  br label %127

72:                                               ; preds = %3
  %73 = load ptr, ptr %5, align 8, !tbaa !4
  %74 = getelementptr inbounds nuw %struct.URLContext, ptr %73, i32 0, i32 4
  %75 = load i32, ptr %74, align 8, !tbaa !57
  %76 = and i32 %75, 8
  %77 = icmp ne i32 %76, 0
  br i1 %77, label %88, label %78

78:                                               ; preds = %72
  %79 = load ptr, ptr %8, align 8, !tbaa !18
  %80 = getelementptr inbounds nuw %struct.UDPContext, ptr %79, i32 0, i32 1
  %81 = load i32, ptr %80, align 8, !tbaa !30
  %82 = call i32 @ff_network_wait_fd(i32 noundef %81, i32 noundef 1)
  store i32 %82, ptr %9, align 4, !tbaa !20
  %83 = load i32, ptr %9, align 4, !tbaa !20
  %84 = icmp slt i32 %83, 0
  br i1 %84, label %85, label %87

85:                                               ; preds = %78
  %86 = load i32, ptr %9, align 4, !tbaa !20
  store i32 %86, ptr %4, align 4
  store i32 1, ptr %12, align 4
  br label %127

87:                                               ; preds = %78
  br label %88

88:                                               ; preds = %87, %72
  %89 = load ptr, ptr %8, align 8, !tbaa !18
  %90 = getelementptr inbounds nuw %struct.UDPContext, ptr %89, i32 0, i32 13
  %91 = load i32, ptr %90, align 4, !tbaa !29
  %92 = icmp ne i32 %91, 0
  br i1 %92, label %107, label %93

93:                                               ; preds = %88
  %94 = load ptr, ptr %8, align 8, !tbaa !18
  %95 = getelementptr inbounds nuw %struct.UDPContext, ptr %94, i32 0, i32 1
  %96 = load i32, ptr %95, align 8, !tbaa !30
  %97 = load ptr, ptr %6, align 8, !tbaa !9
  %98 = load i32, ptr %7, align 4, !tbaa !20
  %99 = sext i32 %98 to i64
  %100 = load ptr, ptr %8, align 8, !tbaa !18
  %101 = getelementptr inbounds nuw %struct.UDPContext, ptr %100, i32 0, i32 11
  %102 = load ptr, ptr %8, align 8, !tbaa !18
  %103 = getelementptr inbounds nuw %struct.UDPContext, ptr %102, i32 0, i32 12
  %104 = load i32, ptr %103, align 8, !tbaa !21
  %105 = call i64 @sendto(i32 noundef %96, ptr noundef %97, i64 noundef %99, i32 noundef 0, ptr noundef %101, i32 noundef %104)
  %106 = trunc i64 %105 to i32
  store i32 %106, ptr %9, align 4, !tbaa !20
  br label %116

107:                                              ; preds = %88
  %108 = load ptr, ptr %8, align 8, !tbaa !18
  %109 = getelementptr inbounds nuw %struct.UDPContext, ptr %108, i32 0, i32 1
  %110 = load i32, ptr %109, align 8, !tbaa !30
  %111 = load ptr, ptr %6, align 8, !tbaa !9
  %112 = load i32, ptr %7, align 4, !tbaa !20
  %113 = sext i32 %112 to i64
  %114 = call i64 @send(i32 noundef %110, ptr noundef %111, i64 noundef %113, i32 noundef 0)
  %115 = trunc i64 %114 to i32
  store i32 %115, ptr %9, align 4, !tbaa !20
  br label %116

116:                                              ; preds = %107, %93
  %117 = load i32, ptr %9, align 4, !tbaa !20
  %118 = icmp slt i32 %117, 0
  br i1 %118, label %119, label %123

119:                                              ; preds = %116
  %120 = call ptr @__errno_location() #11
  %121 = load i32, ptr %120, align 4, !tbaa !20
  %122 = sub nsw i32 0, %121
  br label %125

123:                                              ; preds = %116
  %124 = load i32, ptr %9, align 4, !tbaa !20
  br label %125

125:                                              ; preds = %123, %119
  %126 = phi i32 [ %122, %119 ], [ %124, %123 ]
  store i32 %126, ptr %4, align 4
  store i32 1, ptr %12, align 4
  br label %127

127:                                              ; preds = %125, %85, %71
  call void @llvm.lifetime.end.p0(i64 4, ptr %9) #9
  call void @llvm.lifetime.end.p0(i64 8, ptr %8) #9
  %128 = load i32, ptr %4, align 4
  ret i32 %128
}