; Function Attrs: nounwind uwtable
define internal i32 @udp_write(ptr noundef readonly captures(none) %0, ptr noundef %1, i32 noundef %2) #0 {
  %4 = alloca [4 x i8], align 4
  %5 = getelementptr inbounds nuw i8, ptr %0, i64 16
  %6 = load ptr, ptr %5, align 8, !tbaa !4
  %7 = getelementptr inbounds nuw i8, ptr %6, i64 192
  %8 = load ptr, ptr %7, align 8, !tbaa !64
  %.not = icmp eq ptr %8, null
  br i1 %.not, label %35, label %9

9:                                                ; preds = %3
  call void @llvm.lifetime.start.p0(i64 4, ptr nonnull %4) #11
  %10 = getelementptr inbounds nuw i8, ptr %6, i64 240
  %11 = tail call i32 @pthread_mutex_lock(ptr noundef nonnull %10) #11
  %12 = getelementptr inbounds nuw i8, ptr %6, i64 200
  %13 = load i32, ptr %12, align 8, !tbaa !66
  %14 = icmp slt i32 %13, 0
  br i1 %14, label %15, label %17

15:                                               ; preds = %9
  %16 = tail call i32 @pthread_mutex_unlock(ptr noundef nonnull %10) #11
  br label %34

17:                                               ; preds = %9
  %18 = load ptr, ptr %7, align 8, !tbaa !64
  %19 = tail call i64 @av_fifo_can_write(ptr noundef %18) #11
  %20 = add nsw i32 %2, 4
  %21 = sext i32 %20 to i64
  %22 = icmp ult i64 %19, %21
  br i1 %22, label %23, label %25

23:                                               ; preds = %17
  %24 = tail call i32 @pthread_mutex_unlock(ptr noundef nonnull %10) #11
  br label %34

25:                                               ; preds = %17
  store i32 %2, ptr %4, align 4, !tbaa !47
  %26 = load ptr, ptr %7, align 8, !tbaa !64
  %27 = call i32 @av_fifo_write(ptr noundef %26, ptr noundef nonnull %4, i64 noundef 4) #11
  %28 = load ptr, ptr %7, align 8, !tbaa !64
  %29 = sext i32 %2 to i64
  %30 = call i32 @av_fifo_write(ptr noundef %28, ptr noundef %1, i64 noundef %29) #11
  %31 = getelementptr inbounds nuw i8, ptr %6, i64 280
  %32 = call i32 @pthread_cond_signal(ptr noundef nonnull %31) #11
  %33 = call i32 @pthread_mutex_unlock(ptr noundef nonnull %10) #11
  br label %34

34:                                               ; preds = %25, %23, %15
  %.0 = phi i32 [ %13, %15 ], [ -12, %23 ], [ %2, %25 ]
  call void @llvm.lifetime.end.p0(i64 4, ptr nonnull %4) #11
  br label %63

35:                                               ; preds = %3
  %36 = getelementptr inbounds nuw i8, ptr %0, i64 32
  %37 = load i32, ptr %36, align 8, !tbaa !48
  %38 = and i32 %37, 8
  %.not36 = icmp eq i32 %38, 0
  br i1 %.not36, label %39, label %44

39:                                               ; preds = %35
  %40 = getelementptr inbounds nuw i8, ptr %6, i64 8
  %41 = load i32, ptr %40, align 8, !tbaa !30
  %42 = tail call i32 @ff_network_wait_fd(i32 noundef %41, i32 noundef 1) #11
  %43 = icmp slt i32 %42, 0
  br i1 %43, label %63, label %44

44:                                               ; preds = %39, %35
  %45 = getelementptr inbounds nuw i8, ptr %6, i64 180
  %46 = load i32, ptr %45, align 4, !tbaa !29
  %.not37 = icmp eq i32 %46, 0
  %47 = getelementptr inbounds nuw i8, ptr %6, i64 8
  %48 = load i32, ptr %47, align 8, !tbaa !30
  %49 = sext i32 %2 to i64
  br i1 %.not37, label %50, label %55

50:                                               ; preds = %44
  %51 = getelementptr inbounds nuw i8, ptr %6, i64 48
  %52 = getelementptr inbounds nuw i8, ptr %6, i64 176
  %53 = load i32, ptr %52, align 8, !tbaa !16
  %54 = tail call i64 @sendto(i32 noundef %48, ptr noundef %1, i64 noundef %49, i32 noundef 0, ptr noundef nonnull %51, i32 noundef %53) #11
  br label %57

55:                                               ; preds = %44
  %56 = tail call i64 @send(i32 noundef %48, ptr noundef %1, i64 noundef %49, i32 noundef 0) #11
  br label %57

57:                                               ; preds = %55, %50
  %.033.in = phi i64 [ %56, %55 ], [ %54, %50 ]
  %.033 = trunc i64 %.033.in to i32
  %58 = icmp slt i32 %.033, 0
  br i1 %58, label %59, label %63

59:                                               ; preds = %57
  %60 = tail call ptr @__errno_location() #13
  %61 = load i32, ptr %60, align 4, !tbaa !15
  %62 = sub nsw i32 0, %61
  br label %63

63:                                               ; preds = %59, %57, %39, %34
  %.1 = phi i32 [ %.0, %34 ], [ %42, %39 ], [ %62, %59 ], [ %.033, %57 ]
  ret i32 %.1
}